ccopy_reg
_reconstructor
p0
(cdatacenter
ServerConfig
p1
c__builtin__
object
p2
Ntp3
Rp4
(dp5
S'log'
p6
(lp7
g0
(cdatacenter
LogEntry
p8
g2
Ntp9
Rp10
(dp11
S'type'
p12
I0
sS'term'
p13
I1
sS'command'
p14
I20
sS'uuid'
p15
g0
(cuuid
UUID
p16
g2
Ntp17
Rp18
(dp19
S'int'
p20
L331418824171108943030362368700215247874L
sbsS'addr'
p21
(S'127.0.0.1'
p22
I37648
tp23
sbasS'peers'
p24
(lp25
I1
aI2
aI4
aI5
asS'poolsize'
p26
I80
sS'currentTerm'
p27
I1
sS'votedFor'
p28
I1
sb.